; Function Attrs: mustprogress nofree norecurse nosync nounwind null_pointer_is_valid sspstrong willreturn memory(write, argmem: readwrite, inaccessiblemem: none) uwtable
define void @_ZN11CaptureFile11stopLoadingEv(ptr noundef readonly align 8 captures(none) dereferenceable_or_null(48) %0) local_unnamed_addr #14 align 2 {
  %2 = getelementptr inbounds nuw i8, ptr %0, i64 16
  %3 = load ptr, ptr %2, align 8
  %.not.i = icmp eq ptr %3, null
  br i1 %.not.i, label %_ZN11CaptureFile18setCaptureStopFlagEb.exit, label %4

4:                                                ; preds = %1
  %5 = getelementptr inbounds nuw i8, ptr %3, i64 34
  store i8 1, ptr %5, align 2
  br label %_ZN11CaptureFile18setCaptureStopFlagEb.exit

_ZN11CaptureFile18setCaptureStopFlagEb.exit:      ; preds = %1, %4
  ret void
}